target datalayout = "e-m:e-p270:32:32-p271:32:32-p272:64:64-i64:64-i128:128-f80:128-n8:16:32:64-S128"
target triple = "x86_64-pc-linux-gnu"

%struct.lua_TValue = type { %union.Value, [1 x i32], i32 }
%union.Value = type { ptr }
%struct.lua_State = type { i8, i8, i8, i8, i8, i8, i8, ptr, ptr, ptr, ptr, ptr, ptr, ptr, ptr, i32, i32, i16, i16, i32, ptr, ptr, ptr, ptr, ptr }
%struct.global_State = type { %struct.stringtable, ptr, ptr, i8, i8, ptr, ptr, ptr, i64, i64, i32, i32, i32, [40 x ptr], [40 x ptr], ptr, ptr, ptr, [256 x i64], ptr, %struct.UpVal, [11 x ptr], [11 x ptr], [21 x ptr], %struct.lua_TValue, %struct.lua_TValue, i32, ptr, i64, [4 x i64], %struct.lua_Callbacks, %struct.lua_ExecutionCallbacks, [128 x ptr], [128 x ptr], [128 x ptr], %struct.GCStats }
%struct.stringtable = type { ptr, i32, i32 }
%struct.UpVal = type { i8, i8, i8, i8, ptr, %union.anon.3 }
%union.anon.3 = type { %struct.anon.4 }
%struct.anon.4 = type { ptr, ptr, ptr }
%struct.lua_Callbacks = type { ptr, ptr, ptr, ptr, ptr, ptr, ptr, ptr, ptr, ptr }
%struct.lua_ExecutionCallbacks = type { ptr, ptr, ptr, ptr, ptr, ptr, ptr }
%struct.GCStats = type { [32 x i32], i32, i32, i64, i64, i64, double, double, double }

; Function Attrs: mustprogress nounwind uwtable
define dso_local noundef i64 @_Z17lua_encodepointerP9lua_Statem(ptr noundef %0, i64 noundef %1) #3 {
  %3 = alloca ptr, align 8
  %4 = alloca i64, align 8
  %5 = alloca ptr, align 8
  store ptr %0, ptr %3, align 8, !tbaa !4
  store i64 %1, ptr %4, align 8, !tbaa !69
  call void @llvm.lifetime.start.p0(i64 8, ptr %5) #11
  %6 = load ptr, ptr %3, align 8, !tbaa !4
  %7 = getelementptr inbounds nuw %struct.lua_State, ptr %6, i32 0, i32 9
  %8 = load ptr, ptr %7, align 8, !tbaa !33
  store ptr %8, ptr %5, align 8, !tbaa !50
  %9 = load ptr, ptr %5, align 8, !tbaa !50
  %10 = getelementptr inbounds nuw %struct.global_State, ptr %9, i32 0, i32 29
  %11 = getelementptr inbounds [4 x i64], ptr %10, i64 0, i64 0
  %12 = load i64, ptr %11, align 8, !tbaa !69
  %13 = load i64, ptr %4, align 8, !tbaa !69
  %14 = mul i64 %12, %13
  %15 = load ptr, ptr %5, align 8, !tbaa !50
  %16 = getelementptr inbounds nuw %struct.global_State, ptr %15, i32 0, i32 29
  %17 = getelementptr inbounds [4 x i64], ptr %16, i64 0, i64 2
  %18 = load i64, ptr %17, align 8, !tbaa !69
  %19 = add i64 %14, %18
  %20 = load ptr, ptr %5, align 8, !tbaa !50
  %21 = getelementptr inbounds nuw %struct.global_State, ptr %20, i32 0, i32 29
  %22 = getelementptr inbounds [4 x i64], ptr %21, i64 0, i64 1
  %23 = load i64, ptr %22, align 8, !tbaa !69
  %24 = load i64, ptr %4, align 8, !tbaa !69
  %25 = mul i64 %23, %24
  %26 = load ptr, ptr %5, align 8, !tbaa !50
  %27 = getelementptr inbounds nuw %struct.global_State, ptr %26, i32 0, i32 29
  %28 = getelementptr inbounds [4 x i64], ptr %27, i64 0, i64 3
  %29 = load i64, ptr %28, align 8, !tbaa !69
  %30 = add i64 %25, %29
  %31 = xor i64 %19, %30
  call void @llvm.lifetime.end.p0(i64 8, ptr %5) #11
  ret i64 %31
}