; Function Attrs: mustprogress nofree norecurse nosync nounwind willreturn memory(read, inaccessiblemem: none) uwtable
define dso_local noundef i64 @_Z17lua_encodepointerP9lua_Statem(ptr noundef readonly captures(none) %0, i64 noundef %1) local_unnamed_addr #5 {
  %3 = getelementptr inbounds nuw i8, ptr %0, i64 24
  %4 = load ptr, ptr %3, align 8, !tbaa !30
  %5 = getelementptr inbounds nuw i8, ptr %4, i64 3256
  %6 = load i64, ptr %5, align 8, !tbaa !60
  %7 = mul i64 %6, %1
  %8 = getelementptr inbounds nuw i8, ptr %4, i64 3272
  %9 = load i64, ptr %8, align 8, !tbaa !60
  %10 = add i64 %7, %9
  %11 = getelementptr inbounds nuw i8, ptr %4, i64 3264
  %12 = load i64, ptr %11, align 8, !tbaa !60
  %13 = mul i64 %12, %1
  %14 = getelementptr inbounds nuw i8, ptr %4, i64 3280
  %15 = load i64, ptr %14, align 8, !tbaa !60
  %16 = add i64 %13, %15
  %17 = xor i64 %16, %10
  ret i64 %17
}